target datalayout = "e-m:e-p270:32:32-p271:32:32-p272:64:64-i64:64-i128:128-f80:128-n8:16:32:64-S128"
target triple = "x86_64-pc-linux-gnu"

%struct.SDL_Window = type { i32, ptr, ptr, i32, i32, i32, i32, i32, i32, i32, i32, float, float, i32, i32, i64, i64, float, i8, i8, i32, i32, %struct.SDL_Rect, %struct.SDL_Rect, %struct.SDL_Rect, i8, i8, i8, %struct.SDL_DisplayMode, %struct.SDL_DisplayMode, %struct.SDL_HDROutputProperties, float, ptr, i8, i8, i8, i8, i8, i8, i8, i8, i8, i32, i32, i32, i32, %struct.SDL_Rect, i32, i8, %struct.SDL_Rect, i32, %struct.SDL_Rect, ptr, ptr, i32, float, i32, i32, ptr, ptr, ptr, ptr, ptr, ptr, ptr, ptr, ptr }
%struct.SDL_DisplayMode = type { i32, i32, i32, i32, float, float, i32, i32, ptr }
%struct.SDL_HDROutputProperties = type { float, float }
%struct.SDL_Rect = type { i32, i32, i32, i32 }

; Function Attrs: nounwind uwtable
define internal void @ApplyWindowFlags(ptr noundef %0, i64 noundef %1) #0 {
  %3 = alloca ptr, align 8
  %4 = alloca i64, align 8
  store ptr %0, ptr %3, align 8
  store i64 %1, ptr %4, align 8
  %5 = load ptr, ptr %3, align 8
  %6 = getelementptr inbounds nuw %struct.SDL_Window, ptr %5, i32 0, i32 15
  %7 = load i64, ptr %6, align 8
  %8 = and i64 %7, 786432
  %9 = icmp ne i64 %8, 0
  br i1 %9, label %58, label %10

10:                                               ; preds = %2
  %11 = load i64, ptr %4, align 8
  %12 = and i64 %11, 192
  %13 = icmp ne i64 %12, 0
  br i1 %13, label %17, label %14

14:                                               ; preds = %10
  %15 = load ptr, ptr %3, align 8
  %16 = call zeroext i1 @SDL_RestoreWindow_REAL(ptr noundef %15)
  br label %17

17:                                               ; preds = %14, %10
  %18 = load i64, ptr %4, align 8
  %19 = and i64 %18, 128
  %20 = icmp ne i64 %19, 0
  br i1 %20, label %21, label %24

21:                                               ; preds = %17
  %22 = load ptr, ptr %3, align 8
  %23 = call zeroext i1 @SDL_MaximizeWindow_REAL(ptr noundef %22)
  br label %24

24:                                               ; preds = %21, %17
  %25 = load ptr, ptr %3, align 8
  %26 = load i64, ptr %4, align 8
  %27 = and i64 %26, 1
  %28 = icmp ne i64 %27, 0
  %29 = call zeroext i1 @SDL_SetWindowFullscreen_REAL(ptr noundef %25, i1 noundef zeroext %28)
  %30 = load i64, ptr %4, align 8
  %31 = and i64 %30, 64
  %32 = icmp ne i64 %31, 0
  br i1 %32, label %33, label %36

33:                                               ; preds = %24
  %34 = load ptr, ptr %3, align 8
  %35 = call zeroext i1 @SDL_MinimizeWindow_REAL(ptr noundef %34)
  br label %36

36:                                               ; preds = %33, %24
  %37 = load i64, ptr %4, align 8
  %38 = and i64 %37, 4096
  %39 = icmp ne i64 %38, 0
  br i1 %39, label %40, label %43

40:                                               ; preds = %36
  %41 = load ptr, ptr %3, align 8
  %42 = call zeroext i1 @SDL_SetWindowModal_REAL(ptr noundef %41, i1 noundef zeroext true)
  br label %43

43:                                               ; preds = %40, %36
  %44 = load i64, ptr %4, align 8
  %45 = and i64 %44, 256
  %46 = icmp ne i64 %45, 0
  br i1 %46, label %47, label %50

47:                                               ; preds = %43
  %48 = load ptr, ptr %3, align 8
  %49 = call zeroext i1 @SDL_SetWindowMouseGrab_REAL(ptr noundef %48, i1 noundef zeroext true)
  br label %50

50:                                               ; preds = %47, %43
  %51 = load i64, ptr %4, align 8
  %52 = and i64 %51, 1048576
  %53 = icmp ne i64 %52, 0
  br i1 %53, label %54, label %57

54:                                               ; preds = %50
  %55 = load ptr, ptr %3, align 8
  %56 = call zeroext i1 @SDL_SetWindowKeyboardGrab_REAL(ptr noundef %55, i1 noundef zeroext true)
  br label %57

57:                                               ; preds = %54, %50
  br label %58

58:                                               ; preds = %57, %2
  ret void
}