; Function Attrs: nounwind uwtable
define internal fastcc void @ApplyWindowFlags(ptr noundef %0, i64 noundef %1) unnamed_addr #0 {
  %3 = getelementptr inbounds nuw i8, ptr %0, i64 72
  %4 = load i64, ptr %3, align 8
  %5 = and i64 %4, 786432
  %.not = icmp eq i64 %5, 0
  br i1 %.not, label %6, label %33

6:                                                ; preds = %2
  %7 = and i64 %1, 192
  %.not14 = icmp eq i64 %7, 0
  br i1 %.not14, label %8, label %10

8:                                                ; preds = %6
  %9 = tail call zeroext i1 @SDL_RestoreWindow_REAL(ptr noundef nonnull %0)
  br label %10

10:                                               ; preds = %8, %6
  %11 = and i64 %1, 128
  %.not15 = icmp eq i64 %11, 0
  br i1 %.not15, label %14, label %12

12:                                               ; preds = %10
  %13 = tail call zeroext i1 @SDL_MaximizeWindow_REAL(ptr noundef nonnull %0)
  br label %14

14:                                               ; preds = %12, %10
  %15 = and i64 %1, 1
  %16 = icmp ne i64 %15, 0
  %17 = tail call zeroext i1 @SDL_SetWindowFullscreen_REAL(ptr noundef nonnull %0, i1 noundef zeroext %16)
  %18 = and i64 %1, 64
  %.not16 = icmp eq i64 %18, 0
  br i1 %.not16, label %21, label %19

19:                                               ; preds = %14
  %20 = tail call zeroext i1 @SDL_MinimizeWindow_REAL(ptr noundef nonnull %0)
  br label %21

21:                                               ; preds = %19, %14
  %22 = and i64 %1, 4096
  %.not17 = icmp eq i64 %22, 0
  br i1 %.not17, label %25, label %23

23:                                               ; preds = %21
  %24 = tail call zeroext i1 @SDL_SetWindowModal_REAL(ptr noundef nonnull %0, i1 noundef zeroext true)
  br label %25

25:                                               ; preds = %23, %21
  %26 = and i64 %1, 256
  %.not18 = icmp eq i64 %26, 0
  br i1 %.not18, label %29, label %27

27:                                               ; preds = %25
  %28 = tail call zeroext i1 @SDL_SetWindowMouseGrab_REAL(ptr noundef nonnull %0, i1 noundef zeroext true)
  br label %29

29:                                               ; preds = %27, %25
  %30 = and i64 %1, 1048576
  %.not19 = icmp eq i64 %30, 0
  br i1 %.not19, label %33, label %31

31:                                               ; preds = %29
  %32 = tail call zeroext i1 @SDL_SetWindowKeyboardGrab_REAL(ptr noundef nonnull %0, i1 noundef zeroext true)
  br label %33

33:                                               ; preds = %29, %31, %2
  ret void
}